; Function Attrs: nounwind uwtable
define noundef ptr @Llb_ImgComputeCube(ptr noundef readonly captures(none) %0, ptr noundef readonly captures(none) %1, ptr noundef %2) local_unnamed_addr #0 {
  %4 = getelementptr inbounds nuw i8, ptr %2, i64 752
  %5 = load i64, ptr %4, align 8, !tbaa !68
  store i64 0, ptr %4, align 8, !tbaa !68
  %6 = tail call ptr @Cudd_ReadOne(ptr noundef %2) #13
  tail call void @Cudd_Ref(ptr noundef %6) #13
  %7 = getelementptr i8, ptr %1, i64 4
  %.val24 = load i32, ptr %7, align 4, !tbaa !15
  %8 = icmp sgt i32 %.val24, 0
  br i1 %8, label %Aig_ManObj.exit.lr.ph, label %.critedge

Aig_ManObj.exit.lr.ph:                            ; preds = %3
  %9 = getelementptr i8, ptr %1, i64 8
  %10 = getelementptr i8, ptr %0, i64 32
  br label %Aig_ManObj.exit

Aig_ManObj.exit:                                  ; preds = %Aig_ManObj.exit.lr.ph, %Aig_ManObj.exit
  %indvars.iv = phi i64 [ 0, %Aig_ManObj.exit.lr.ph ], [ %indvars.iv.next, %Aig_ManObj.exit ]
  %.026 = phi ptr [ %6, %Aig_ManObj.exit.lr.ph ], [ %19, %Aig_ManObj.exit ]
  %.val21 = load ptr, ptr %9, align 8, !tbaa !14
  %11 = getelementptr inbounds nuw i32, ptr %.val21, i64 %indvars.iv
  %12 = load i32, ptr %11, align 4, !tbaa !16
  %.val23 = load ptr, ptr %10, align 8, !tbaa !55, !nonnull !75, !noundef !75
  %13 = getelementptr i8, ptr %.val23, i64 8
  %.val.i = load ptr, ptr %13, align 8, !tbaa !3
  %14 = sext i32 %12 to i64
  %15 = getelementptr inbounds ptr, ptr %.val.i, i64 %14
  %16 = load ptr, ptr %15, align 8, !tbaa !9
  %17 = getelementptr i8, ptr %16, i64 36
  %.val22 = load i32, ptr %17, align 4, !tbaa !53
  %18 = tail call ptr @Cudd_bddIthVar(ptr noundef %2, i32 noundef %.val22) #13
  %19 = tail call ptr @Cudd_bddAnd(ptr noundef %2, ptr noundef %.026, ptr noundef %18) #13
  tail call void @Cudd_Ref(ptr noundef %19) #13
  tail call void @Cudd_RecursiveDeref(ptr noundef %2, ptr noundef %.026) #13
  %indvars.iv.next = add nuw nsw i64 %indvars.iv, 1
  %.val = load i32, ptr %7, align 4, !tbaa !15
  %20 = sext i32 %.val to i64
  %21 = icmp slt i64 %indvars.iv.next, %20
  br i1 %21, label %Aig_ManObj.exit, label %.critedge, !llvm.loop !76

.critedge:                                        ; preds = %Aig_ManObj.exit, %3
  %.0.lcssa = phi ptr [ %6, %3 ], [ %19, %Aig_ManObj.exit ]
  tail call void @Cudd_Deref(ptr noundef %.0.lcssa) #13
  store i64 %5, ptr %4, align 8, !tbaa !68
  ret ptr %.0.lcssa
}